; Function Attrs: mustprogress uwtable
define noundef ptr @_ZNK13sentencepiece23SentencePieceNormalizer23mutable_normalizer_specEv(ptr noundef nonnull readonly align 8 captures(none) dereferenceable(24) %0) unnamed_addr #3 align 2 {
  %2 = getelementptr inbounds nuw i8, ptr %0, i64 16
  %3 = load ptr, ptr %2, align 8, !tbaa !234
  %.not = icmp eq ptr %3, null
  br i1 %.not, label %_ZN13sentencepiece10ModelProto23mutable_normalizer_specEv.exit, label %4

4:                                                ; preds = %1
  %5 = getelementptr inbounds nuw i8, ptr %3, i64 40
  %6 = load i32, ptr %5, align 4, !tbaa !35
  %7 = or i32 %6, 2
  store i32 %7, ptr %5, align 4, !tbaa !35
  %8 = getelementptr inbounds nuw i8, ptr %3, i64 80
  %9 = load ptr, ptr %8, align 8, !tbaa !238
  %10 = icmp eq ptr %9, null
  br i1 %10, label %11, label %_ZN13sentencepiece10ModelProto23mutable_normalizer_specEv.exit

11:                                               ; preds = %4
  %12 = getelementptr inbounds nuw i8, ptr %3, i64 8
  %13 = load ptr, ptr %12, align 8, !tbaa !37
  %14 = ptrtoint ptr %13 to i64
  %15 = and i64 %14, 1
  %.not.i.i.i = icmp eq i64 %15, 0
  br i1 %.not.i.i.i, label %_ZNK6google8protobuf11MessageLite8GetArenaEv.exit.i.i, label %16, !prof !39

16:                                               ; preds = %11
  %17 = and i64 %14, -2
  %18 = inttoptr i64 %17 to ptr
  %19 = load ptr, ptr %18, align 8, !tbaa !40
  br label %_ZNK6google8protobuf11MessageLite8GetArenaEv.exit.i.i

_ZNK6google8protobuf11MessageLite8GetArenaEv.exit.i.i: ; preds = %16, %11
  %.0.i.i.i.i = phi ptr [ %19, %16 ], [ %13, %11 ]
  %20 = tail call noundef ptr @_ZN6google8protobuf5Arena18CreateMaybeMessageIN13sentencepiece14NormalizerSpecEJEEEPT_PS1_DpOT0_(ptr noundef %.0.i.i.i.i)
  store ptr %20, ptr %8, align 8, !tbaa !238
  br label %_ZN13sentencepiece10ModelProto23mutable_normalizer_specEv.exit

_ZN13sentencepiece10ModelProto23mutable_normalizer_specEv.exit: ; preds = %_ZNK6google8protobuf11MessageLite8GetArenaEv.exit.i.i, %4, %1
  %21 = phi ptr [ null, %1 ], [ %20, %_ZNK6google8protobuf11MessageLite8GetArenaEv.exit.i.i ], [ %9, %4 ]
  ret ptr %21
}